; Function Attrs: mustprogress uwtable
define internal fastcc void @_ZZN8facebook5velox9functions12_GLOBAL__N_118FilterFunctionBase7doApplyINS0_11ArrayVectorEEEiRKNS0_17SelectivityVectorERKSt10shared_ptrIT_ERKS9_INS0_10BaseVectorEERKSt6vectorISF_SaISF_EERNS0_4exec7EvalCtxERN5boost13intrusive_ptrINS0_6BufferEEESU_SU_ENKUliE_clEi(ptr nocapture noundef nonnull readonly align 8 dereferenceable(64) %this, i32 noundef %row) unnamed_addr #0 align 2 {
entry:
  %0 = load ptr, ptr %this, align 8
  %1 = load ptr, ptr %0, align 8
  %vtable = load ptr, ptr %1, align 8
  %vfn = getelementptr inbounds i8, ptr %vtable, i64 32
  %2 = load ptr, ptr %vfn, align 8
  %call2 = tail call noundef zeroext i1 %2(ptr noundef nonnull align 8 dereferenceable(99) %1, i32 noundef %row)
  br i1 %call2, label %for.end, label %if.end

if.end:                                           ; preds = %entry
  %3 = getelementptr inbounds i8, ptr %this, i64 8
  %4 = load ptr, ptr %3, align 8
  %5 = load ptr, ptr %4, align 8
  %idxprom = sext i32 %row to i64
  %arrayidx = getelementptr inbounds i32, ptr %5, i64 %idxprom
  %6 = load i32, ptr %arrayidx, align 4
  %7 = getelementptr inbounds i8, ptr %this, i64 16
  %8 = load ptr, ptr %7, align 8
  %9 = load ptr, ptr %8, align 8
  %arrayidx4 = getelementptr inbounds i32, ptr %9, i64 %idxprom
  %10 = load i32, ptr %arrayidx4, align 4
  %11 = getelementptr inbounds i8, ptr %this, i64 32
  %12 = load ptr, ptr %11, align 8
  %13 = load i32, ptr %12, align 4
  %14 = getelementptr inbounds i8, ptr %this, i64 24
  %15 = load ptr, ptr %14, align 8
  %16 = load ptr, ptr %15, align 8
  %arrayidx6 = getelementptr inbounds i32, ptr %16, i64 %idxprom
  store i32 %13, ptr %arrayidx6, align 4
  %cmp12 = icmp sgt i32 %6, 0
  br i1 %cmp12, label %for.body.lr.ph, label %for.end

for.body.lr.ph:                                   ; preds = %if.end
  %17 = getelementptr inbounds i8, ptr %this, i64 40
  %18 = getelementptr inbounds i8, ptr %this, i64 48
  %19 = getelementptr inbounds i8, ptr %this, i64 56
  %20 = sext i32 %10 to i64
  %wide.trip.count = zext nneg i32 %6 to i64
  br label %for.body

for.body:                                         ; preds = %for.body.lr.ph, %for.inc
  %indvars.iv = phi i64 [ 0, %for.body.lr.ph ], [ %indvars.iv.next, %for.inc ]
  %21 = load ptr, ptr %17, align 8
  %call7 = tail call noundef ptr @_ZN8facebook5velox4exec18LocalDecodedVector3getEv(ptr noundef nonnull align 8 dereferenceable(16) %21)
  %22 = add nsw i64 %indvars.iv, %20
  %nulls_.i = getelementptr inbounds i8, ptr %call7, i64 24
  %23 = load ptr, ptr %nulls_.i, align 8
  %tobool.not.i = icmp eq ptr %23, null
  br i1 %tobool.not.i, label %land.lhs.true, label %if.end.i

if.end.i:                                         ; preds = %for.body
  %isIdentityMapping_.i = getelementptr inbounds i8, ptr %call7, i64 58
  %24 = load i8, ptr %isIdentityMapping_.i, align 2
  %25 = and i8 %24, 1
  %tobool2.not.i = icmp eq i8 %25, 0
  br i1 %tobool2.not.i, label %lor.lhs.false.i, label %if.then4.i

lor.lhs.false.i:                                  ; preds = %if.end.i
  %hasExtraNulls_.i = getelementptr inbounds i8, ptr %call7, i64 57
  %26 = load i8, ptr %hasExtraNulls_.i, align 1
  %27 = and i8 %26, 1
  %tobool3.not.i = icmp eq i8 %27, 0
  br i1 %tobool3.not.i, label %if.end6.i, label %if.then4.i

if.then4.i:                                       ; preds = %lor.lhs.false.i, %if.end.i
  %div2.i.i.i = lshr i64 %22, 6
  %arrayidx.i.i.i = getelementptr inbounds i64, ptr %23, i64 %div2.i.i.i
  %28 = load i64, ptr %arrayidx.i.i.i, align 8
  %and.i.i.i = and i64 %22, 63
  %shl.i.i.i = shl nuw i64 1, %and.i.i.i
  %and2.i.i.i = and i64 %28, %shl.i.i.i
  %tobool.i.not.i.i = icmp eq i64 %and2.i.i.i, 0
  br i1 %tobool.i.not.i.i, label %for.inc, label %land.lhs.true

if.end6.i:                                        ; preds = %lor.lhs.false.i
  %isConstantMapping_.i = getelementptr inbounds i8, ptr %call7, i64 59
  %29 = load i8, ptr %isConstantMapping_.i, align 1
  %30 = and i8 %29, 1
  %tobool7.not.i = icmp eq i8 %30, 0
  br i1 %tobool7.not.i, label %_ZNK8facebook5velox13DecodedVector8isNullAtEi.exit, label %if.then8.i

if.then8.i:                                       ; preds = %if.end6.i
  %31 = load i64, ptr %23, align 8
  %and2.i.i2.i = and i64 %31, 1
  %tobool.i.not.i3.i = icmp eq i64 %and2.i.i2.i, 0
  br i1 %tobool.i.not.i3.i, label %for.inc, label %land.lhs.true

_ZNK8facebook5velox13DecodedVector8isNullAtEi.exit: ; preds = %if.end6.i
  %indices_.i = getelementptr inbounds i8, ptr %call7, i64 8
  %32 = load ptr, ptr %indices_.i, align 8
  %arrayidx.i = getelementptr inbounds i32, ptr %32, i64 %22
  %33 = load i32, ptr %arrayidx.i, align 4
  %conv.i.i4.i = sext i32 %33 to i64
  %div2.i.i5.i = lshr i64 %conv.i.i4.i, 6
  %arrayidx.i.i6.i = getelementptr inbounds i64, ptr %23, i64 %div2.i.i5.i
  %34 = load i64, ptr %arrayidx.i.i6.i, align 8
  %and.i.i7.i = and i64 %conv.i.i4.i, 63
  %shl.i.i8.i = shl nuw i64 1, %and.i.i7.i
  %and2.i.i9.i = and i64 %shl.i.i8.i, %34
  %tobool.i.not.i10.i = icmp eq i64 %and2.i.i9.i, 0
  br i1 %tobool.i.not.i10.i, label %for.inc, label %land.lhs.true

land.lhs.true:                                    ; preds = %for.body, %if.then8.i, %if.then4.i, %_ZNK8facebook5velox13DecodedVector8isNullAtEi.exit
  %35 = load ptr, ptr %17, align 8
  %call9 = tail call noundef ptr @_ZN8facebook5velox4exec18LocalDecodedVector3getEv(ptr noundef nonnull align 8 dereferenceable(16) %35)
  %data_.i = getelementptr inbounds i8, ptr %call9, i64 16
  %36 = load ptr, ptr %data_.i, align 8
  %isIdentityMapping_.i.i = getelementptr inbounds i8, ptr %call9, i64 58
  %37 = load i8, ptr %isIdentityMapping_.i.i, align 2
  %38 = and i8 %37, 1
  %tobool.not.i.i = icmp eq i8 %38, 0
  %39 = trunc i64 %22 to i32
  br i1 %tobool.not.i.i, label %if.end.i.i, label %_ZNK8facebook5velox13DecodedVector7valueAtIbEET_i.exit

if.end.i.i:                                       ; preds = %land.lhs.true
  %isConstantMapping_.i.i = getelementptr inbounds i8, ptr %call9, i64 59
  %40 = load i8, ptr %isConstantMapping_.i.i, align 1
  %41 = and i8 %40, 1
  %tobool2.not.i.i = icmp eq i8 %41, 0
  br i1 %tobool2.not.i.i, label %if.end4.i.i, label %if.then3.i.i

if.then3.i.i:                                     ; preds = %if.end.i.i
  %constantIndex_.i.i = getelementptr inbounds i8, ptr %call9, i64 64
  %42 = load i32, ptr %constantIndex_.i.i, align 8
  br label %_ZNK8facebook5velox13DecodedVector7valueAtIbEET_i.exit

if.end4.i.i:                                      ; preds = %if.end.i.i
  %indices_.i.i = getelementptr inbounds i8, ptr %call9, i64 8
  %43 = load ptr, ptr %indices_.i.i, align 8
  %arrayidx.i.i = getelementptr inbounds i32, ptr %43, i64 %22
  %44 = load i32, ptr %arrayidx.i.i, align 4
  br label %_ZNK8facebook5velox13DecodedVector7valueAtIbEET_i.exit

_ZNK8facebook5velox13DecodedVector7valueAtIbEET_i.exit: ; preds = %land.lhs.true, %if.then3.i.i, %if.end4.i.i
  %retval.0.i.i = phi i32 [ %42, %if.then3.i.i ], [ %44, %if.end4.i.i ], [ %39, %land.lhs.true ]
  %conv.i.i = sext i32 %retval.0.i.i to i64
  %div2.i.i = lshr i64 %conv.i.i, 6
  %arrayidx.i1.i = getelementptr inbounds i64, ptr %36, i64 %div2.i.i
  %45 = load i64, ptr %arrayidx.i1.i, align 8
  %and.i.i = and i64 %conv.i.i, 63
  %shl.i.i = shl nuw i64 1, %and.i.i
  %and2.i.i = and i64 %shl.i.i, %45
  %tobool.i.i.not = icmp eq i64 %and2.i.i, 0
  br i1 %tobool.i.i.not, label %for.inc, label %if.then12

if.then12:                                        ; preds = %_ZNK8facebook5velox13DecodedVector7valueAtIbEET_i.exit
  %46 = load ptr, ptr %18, align 8
  %47 = load ptr, ptr %46, align 8
  %arrayidx14 = getelementptr inbounds i32, ptr %47, i64 %idxprom
  %48 = load i32, ptr %arrayidx14, align 4
  %inc = add nsw i32 %48, 1
  store i32 %inc, ptr %arrayidx14, align 4
  %49 = load ptr, ptr %19, align 8
  %50 = load ptr, ptr %49, align 8
  %51 = load ptr, ptr %11, align 8
  %52 = load i32, ptr %51, align 4
  %idxprom16 = sext i32 %52 to i64
  %arrayidx17 = getelementptr inbounds i32, ptr %50, i64 %idxprom16
  store i32 %39, ptr %arrayidx17, align 4
  %53 = load ptr, ptr %11, align 8
  %54 = load i32, ptr %53, align 4
  %inc18 = add nsw i32 %54, 1
  store i32 %inc18, ptr %53, align 4
  br label %for.inc

for.inc:                                          ; preds = %if.then8.i, %if.then4.i, %_ZNK8facebook5velox13DecodedVector8isNullAtEi.exit, %_ZNK8facebook5velox13DecodedVector7valueAtIbEET_i.exit, %if.then12
  %indvars.iv.next = add nuw nsw i64 %indvars.iv, 1
  %exitcond.not = icmp eq i64 %indvars.iv.next, %wide.trip.count
  br i1 %exitcond.not, label %for.end, label %for.body, !llvm.loop !64

for.end:                                          ; preds = %for.inc, %if.end, %entry
  ret void
}